Certificate:
    Data:
        Version: 3 (0x2)
        Serial Number: 1050995 (0x100973)
    Signature Algorithm: sha384WithRSAEncryption
        Issuer: O=Beijing VRV Software Corporation Limited., OU=Mobile Interconnection Center, CN=VRV Trust NetWork
        Validity
            Not Before: Jul 25 06:47:56 2017 GMT
            Not After : Aug  2 06:47:56 2027 GMT
        Subject: C=CN, ST=Beijing, O=Kok Pin Zong, OU=/ct?c=AnyChat&pc=Windows&an=com.kpz.AnyChat, CN=AnyChat
        Subject Public Key Info:
            Public Key Algorithm: rsaEncryption
                Public-Key: (2048 bit)
                Modulus:
                    00:e1:56:fe:78:5e:e6:52:71:75:15:2c:e6:31:f8:
                    17:4e:d2:e0:fd:d1:ba:89:41:3d:5e:ec:25:e6:27:
                    65:10:27:78:fe:14:5d:97:04:35:ac:24:67:20:6a:
                    57:6a:8d:67:2c:15:95:2f:24:76:0e:15:b4:dc:bb:
                    1e:ab:1e:94:2c:ce:06:e1:91:f7:e7:59:17:64:ca:
                    dd:99:21:43:65:02:cd:c0:dd:0a:8b:61:2c:b2:00:
                    1e:cc:b9:01:e3:0e:65:57:87:3c:2f:79:11:f8:22:
                    ca:42:b5:f9:1e:fa:19:0f:67:6b:90:80:cf:6b:15:
                    65:b6:24:96:98:4d:f8:4d:72:a9:f6:8f:35:82:35:
                    68:ff:16:d5:e2:51:c1:87:61:b2:99:60:39:c9:57:
                    73:75:09:cb:4a:51:50:1c:55:07:6e:20:77:48:98:
                    1a:df:18:7e:3e:74:69:bc:cb:a8:ca:b7:70:fd:19:
                    ab:4b:04:e7:7f:26:83:b3:56:46:ce:75:46:8d:9c:
                    07:30:7a:74:a6:84:10:94:d7:a0:f0:71:ed:4a:0c:
                    c0:00:ea:14:85:0e:3b:a0:9a:87:9b:93:d4:82:5b:
                    32:5f:65:25:c5:07:ee:65:74:18:72:d1:69:be:dd:
                    74:ae:cb:06:a6:80:44:94:b1:f5:95:24:e2:04:07:
                    a7:f1
                Exponent: 65537 (0x10001)
        X509v3 extensions:
            X509v3 Basic Constraints: 
                CA:FALSE
            Netscape Comment: 
                www.linkdood.com
            X509v3 Subject Key Identifier: 
                4C:65:FE:71:BB:46:F7:59:6E:D1:CE:A3:34:5A:7E:3E:5A:58:30:15
            X509v3 Authority Key Identifier: 
                keyid:73:CE:F9:8F:ED:CD:76:66:60:5F:C4:1E:17:CF:52:90:D3:90:FC:33

    Signature Algorithm: sha384WithRSAEncryption
         4d:fe:a5:d9:69:ef:62:92:eb:13:17:ba:a4:f8:66:7c:91:1c:
         bf:86:d0:f0:44:92:bd:1d:33:f8:0d:82:d1:29:8d:d1:53:3e:
         ec:e0:13:85:f3:73:5e:27:bf:87:0a:7c:3c:8a:21:bf:57:2c:
         58:36:6a:79:0e:1c:67:52:6d:d2:f4:77:42:9b:19:26:d8:31:
         4c:ac:b0:3b:e9:9b:f9:05:44:0b:79:23:18:f4:3d:ab:47:f3:
         24:13:2c:e9:bc:42:8d:a4:41:b9:78:3a:9c:2a:49:3c:20:0b:
         7c:b9:70:13:17:87:ea:a7:41:a1:5e:e3:d4:17:de:67:a3:07:
         5b:d6:1d:0e:b0:6f:3f:9d:67:a4:a0:7b:a9:18:ab:10:e9:69:
         4d:9e:ec:5e:1e:69:0d:63:8c:7f:92:1b:71:c9:11:ce:fb:6a:
         73:3e:7f:2a:37:64:38:ea:65:19:1c:54:61:81:28:f7:5b:df:
         39:84:89:1a:ab:57:6a:57:7c:ae:af:2e:d9:ee:8d:f7:b2:f1:
         65:cb:86:69:92:28:ff:e7:d6:83:64:54:6c:71:8b:ed:ea:06:
         3d:28:f3:2e:ed:b8:d9:13:34:f0:3b:0a:d6:60:0e:13:81:b7:
         47:84:3e:ae:e7:56:04:b0:60:ac:1e:82:e3:64:cb:21:4c:cf:
         fc:78:6b:1c
-----BEGIN CERTIFICATE-----
MIID4TCCAsmgAwIBAgIDEAlzMA0GCSqGSIb3DQEBDAUAMHgxMjAwBgNVBAoMKUJl
aWppbmcgVlJWIFNvZnR3YXJlIENvcnBvcmF0aW9uIExpbWl0ZWQuMSYwJAYDVQQL
DB1Nb2JpbGUgSW50ZXJjb25uZWN0aW9uIENlbnRlcjEaMBgGA1UEAwwRVlJWIFRy
dXN0IE5ldFdvcmswHhcNMTcwNzI1MDY0NzU2WhcNMjcwODAyMDY0NzU2WjB+MQsw
CQYDVQQGEwJDTjEQMA4GA1UECAwHQmVpamluZzEVMBMGA1UECgwMS29rIFBpbiBa
b25nMTQwMgYDVQQLDCsvY3Q/Yz1BbnlDaGF0JnBjPVdpbmRvd3MmYW49Y29tLmtw
ei5BbnlDaGF0MRAwDgYDVQQDDAdBbnlDaGF0MIIBIjANBgkqhkiG9w0BAQEFAAOC
AQ8AMIIBCgKCAQEA4Vb+eF7mUnF1FSzmMfgXTtLg/dG6iUE9Xuwl5idlECd4/hRd
lwQ1rCRnIGpXao1nLBWVLyR2DhW03Lseqx6ULM4G4ZH351kXZMrdmSFDZQLNwN0K
i2EssgAezLkB4w5lV4c8L3kR+CLKQrX5HvoZD2drkIDPaxVltiSWmE34TXKp9o81
gjVo/xbV4lHBh2GymWA5yVdzdQnLSlFQHFUHbiB3SJga3xh+PnRpvMuoyrdw/Rmr
SwTnfyaDs1ZGznVGjZwHMHp0poQQlNeg8HHtSgzAAOoUhQ47oJqHm5PUglsyX2Ul
xQfuZXQYctFpvt10rssGpoBElLH1lSTiBAen8QIDAQABo24wbDAJBgNVHRMEAjAA
MB8GCWCGSAGG+EIBDQQSFhB3d3cubGlua2Rvb2QuY29tMB0GA1UdDgQWBBRMZf5x
u0b3WW7RzqM0Wn4+WlgwFTAfBgNVHSMEGDAWgBRzzvmP7c12ZmBfxB4Xz1KQ05D8
MzANBgkqhkiG9w0BAQwFAAOCAQEATf6l2WnvYpLrExe6pPhmfJEcv4bQ8ESSvR0z
+A2C0SmN0VM+7OAThfNzXie/hwp8PIohv1csWDZqeQ4cZ1Jt0vR3QpsZJtgxTKyw
O+mb+QVEC3kjGPQ9q0fzJBMs6bxCjaRBuXg6nCpJPCALfLlwExeH6qdBoV7j1Bfe
Z6MHW9YdDrBvP51npKB7qRirEOlpTZ7sXh5pDWOMf5IbcckRzvtqcz5/KjdkOOpl
GRxUYYEo91vfOYSJGqtXald8rq8u2e6N97LxZcuGaZIo/+fWg2RUbHGL7eoGPSjz
Lu242RM08DsK1mAOE4G3R4Q+rudWBLBgrB6C42TLIUzP/HhrHA==
-----END CERTIFICATE-----
